; Function Attrs: nounwind uwtable
define void @Acec_CheckBoothPPs(ptr noundef %0, ptr noundef readonly captures(none) %1) local_unnamed_addr #0 {
  %3 = tail call ptr @Acec_MultMarkPPs(ptr noundef %0) #21
  %4 = getelementptr i8, ptr %1, i64 4
  %.val3848 = load i32, ptr %4, align 4, !tbaa !59
  %5 = icmp sgt i32 %.val3848, 0
  br i1 %5, label %.lr.ph50, label %.critedge

.lr.ph50:                                         ; preds = %2
  %6 = getelementptr i8, ptr %1, i64 8
  %7 = getelementptr i8, ptr %0, i64 32
  %8 = getelementptr i8, ptr %3, i64 8
  br label %9

9:                                                ; preds = %.lr.ph50, %.critedge2
  %indvars.iv52 = phi i64 [ 0, %.lr.ph50 ], [ %indvars.iv.next53, %.critedge2 ]
  %.val37 = load ptr, ptr %6, align 8, !tbaa !58
  %10 = getelementptr inbounds nuw %struct.Vec_Int_t_, ptr %.val37, i64 %indvars.iv52
  %11 = getelementptr i8, ptr %10, i64 4
  %.val32 = load i32, ptr %11, align 4, !tbaa !28
  %12 = icmp sgt i32 %.val32, 0
  br i1 %12, label %.lr.ph, label %.critedge2

.lr.ph:                                           ; preds = %9
  %13 = getelementptr i8, ptr %10, i64 8
  %.val33 = load ptr, ptr %13, align 8, !tbaa !29
  %.val34 = load ptr, ptr %7, align 8, !tbaa !52
  %wide.trip.count = zext nneg i32 %.val32 to i64
  br label %14

14:                                               ; preds = %.lr.ph, %37
  %indvars.iv = phi i64 [ 0, %.lr.ph ], [ %indvars.iv.next, %37 ]
  %.044 = phi i32 [ 0, %.lr.ph ], [ %.1, %37 ]
  %.02543 = phi i32 [ 0, %.lr.ph ], [ %.126, %37 ]
  %.02742 = phi i32 [ 0, %.lr.ph ], [ %.128, %37 ]
  %15 = getelementptr inbounds nuw i32, ptr %.val33, i64 %indvars.iv
  %16 = load i32, ptr %15, align 4, !tbaa !30
  %17 = ashr i32 %16, 1
  %18 = sext i32 %17 to i64
  %19 = getelementptr inbounds %struct.Gia_Obj_t_, ptr %.val34, i64 %18
  %.val36 = load i64, ptr %19, align 4
  %20 = and i64 %.val36, 2147483648
  %.not.i = icmp ne i64 %20, 0
  %21 = and i64 %.val36, 536870911
  %22 = icmp eq i64 %21, 536870911
  %narrow.i.not = or i1 %.not.i, %22
  br i1 %narrow.i.not, label %23, label %25

23:                                               ; preds = %14
  %24 = add nsw i32 %.02742, 1
  br label %37

25:                                               ; preds = %14
  %.val35 = load ptr, ptr %8, align 8, !tbaa !41
  %26 = ashr i32 %16, 6
  %27 = sext i32 %26 to i64
  %28 = getelementptr inbounds i32, ptr %.val35, i64 %27
  %29 = load i32, ptr %28, align 4, !tbaa !30
  %30 = and i32 %17, 31
  %31 = shl nuw i32 1, %30
  %32 = and i32 %29, %31
  %.not31 = icmp eq i32 %32, 0
  br i1 %.not31, label %35, label %33

33:                                               ; preds = %25
  %34 = add nsw i32 %.02543, 1
  br label %37

35:                                               ; preds = %25
  %36 = add nsw i32 %.044, 1
  br label %37

37:                                               ; preds = %23, %35, %33
  %.128 = phi i32 [ %.02742, %33 ], [ %.02742, %35 ], [ %24, %23 ]
  %.126 = phi i32 [ %34, %33 ], [ %.02543, %35 ], [ %.02543, %23 ]
  %.1 = phi i32 [ %.044, %33 ], [ %36, %35 ], [ %.044, %23 ]
  %indvars.iv.next = add nuw nsw i64 %indvars.iv, 1
  %exitcond.not = icmp eq i64 %indvars.iv.next, %wide.trip.count
  br i1 %exitcond.not, label %.critedge2, label %14, !llvm.loop !63

.critedge2:                                       ; preds = %37, %9
  %.027.lcssa = phi i32 [ 0, %9 ], [ %.128, %37 ]
  %.025.lcssa = phi i32 [ 0, %9 ], [ %.126, %37 ]
  %.0.lcssa = phi i32 [ 0, %9 ], [ %.1, %37 ]
  %38 = trunc nuw nsw i64 %indvars.iv52 to i32
  %39 = tail call i32 (ptr, ...) @printf(ptr noundef nonnull dereferenceable(1) @.str.4, i32 noundef %38, i32 noundef %.val32, i32 noundef %.027.lcssa, i32 noundef %.025.lcssa, i32 noundef %.0.lcssa)
  %indvars.iv.next53 = add nuw nsw i64 %indvars.iv52, 1
  %.val38 = load i32, ptr %4, align 4, !tbaa !59
  %40 = sext i32 %.val38 to i64
  %41 = icmp slt i64 %indvars.iv.next53, %40
  br i1 %41, label %9, label %.critedge, !llvm.loop !64

.critedge:                                        ; preds = %.critedge2, %2
  %42 = getelementptr inbounds nuw i8, ptr %3, i64 8
  %43 = load ptr, ptr %42, align 8, !tbaa !41
  %.not.i39 = icmp eq ptr %43, null
  br i1 %.not.i39, label %Vec_BitFree.exit, label %44

44:                                               ; preds = %.critedge
  tail call void @free(ptr noundef nonnull %43) #21
  br label %Vec_BitFree.exit

Vec_BitFree.exit:                                 ; preds = %.critedge, %44
  tail call void @free(ptr noundef nonnull %3) #21
  ret void
}